; Function Attrs: mustprogress uwtable
define hidden void @_ZN6region5resetEv(ptr noundef nonnull align 8 dereferenceable(40) %this) local_unnamed_addr #3 align 2 {
entry:
  %.pr = load ptr, ptr %this, align 8
  %cmp.not2 = icmp eq ptr %.pr, null
  br i1 %cmp.not2, label %while.end, label %while.body.lr.ph

while.body.lr.ph:                                 ; preds = %entry
  %m_free_pages.i = getelementptr inbounds nuw i8, ptr %this, i64 24
  br label %while.body

while.body:                                       ; preds = %while.body.lr.ph, %while.body
  %0 = phi ptr [ %.pr, %while.body.lr.ph ], [ %2, %while.body ]
  %arrayidx.i.i = getelementptr inbounds i8, ptr %0, i64 -8
  %1 = load i64, ptr %arrayidx.i.i, align 8
  %and.i.i = and i64 %1, -2
  %2 = inttoptr i64 %and.i.i to ptr
  tail call void @_Z12recycle_pagePcRS_(ptr noundef nonnull %0, ptr noundef nonnull align 8 dereferenceable(8) %m_free_pages.i)
  store ptr %2, ptr %this, align 8
  %cmp.not = icmp eq i64 %and.i.i, 0
  br i1 %cmp.not, label %while.end, label %while.body, !llvm.loop !4

while.end:                                        ; preds = %while.body, %entry
  %.lcssa = phi ptr [ null, %entry ], [ %2, %while.body ]
  %m_curr_ptr = getelementptr inbounds nuw i8, ptr %this, i64 8
  %m_curr_end_ptr = getelementptr inbounds nuw i8, ptr %this, i64 16
  %m_mark = getelementptr inbounds nuw i8, ptr %this, i64 32
  store ptr null, ptr %m_mark, align 8
  %m_free_pages.i1 = getelementptr inbounds nuw i8, ptr %this, i64 24
  tail call void @llvm.memset.p0.i64(ptr noundef nonnull align 8 dereferenceable(16) %m_curr_ptr, i8 0, i64 16, i1 false)
  %call.i = tail call noundef ptr @_Z21allocate_default_pagePcRS_(ptr noundef %.lcssa, ptr noundef nonnull align 8 dereferenceable(8) %m_free_pages.i1)
  store ptr %call.i, ptr %this, align 8
  store ptr %call.i, ptr %m_curr_ptr, align 8
  %add.ptr.i.i = getelementptr inbounds nuw i8, ptr %call.i, i64 8184
  store ptr %add.ptr.i.i, ptr %m_curr_end_ptr, align 8
  ret void
}